ARM GAS  C:\Users\ADMINI~1\AppData\Local\Temp\ccA625JY.s 			page 1


   1              		.cpu cortex-m0
   2              		.fpu softvfp
   3              		.eabi_attribute 20, 1
   4              		.eabi_attribute 21, 1
   5              		.eabi_attribute 23, 3
   6              		.eabi_attribute 24, 1
   7              		.eabi_attribute 25, 1
   8              		.eabi_attribute 26, 1
   9              		.eabi_attribute 30, 1
  10              		.eabi_attribute 34, 0
  11              		.eabi_attribute 18, 4
  12              		.code	16
  13              		.file	"main.c"
  14              		.text
  15              	.Ltext0:
  16              		.cfi_sections	.debug_frame
  17              		.section	.text.sendBit,"ax",%progbits
  18              		.align	2
  19              		.global	sendBit
  20              		.code	16
  21              		.thumb_func
  22              		.type	sendBit, %function
  23              	sendBit:
  24              	.LFB37:
  25              		.file 1 ".\\main.c"
   1:.\main.c      **** /* ========================================
   2:.\main.c      ****  * TLC59731
   3:.\main.c      ****  * A little demo that shows how to control 
   4:.\main.c      ****  * the brightness of 3 LEDs 
   5:.\main.c      ****  * with the one wire PWM controller IC.
   6:.\main.c      ****  * ========================================
   7:.\main.c      **** */
   8:.\main.c      **** #include <project.h>
   9:.\main.c      **** 
  10:.\main.c      **** // timing is everything here
  11:.\main.c      **** #define DELAY     1u // width a pulse on the wire (read: 1 unit!), period is 2 units
  12:.\main.c      **** #define T_CYCLE_0 4u // time to wait for the cycle to complete (before the next bit can be sent) if
  13:.\main.c      **** #define T_CYCLE_1 1u // time to wait for the cycle to complete (before the next bit can be sent) if
  14:.\main.c      **** 
  15:.\main.c      **** void sendBit(uint8_t bit)
  16:.\main.c      **** {
  26              		.loc 1 16 0
  27              		.cfi_startproc
  28              	.LVL0:
  29 0000 10B5     		push	{r4, lr}
  30              		.cfi_def_cfa_offset 8
  31              		.cfi_offset 4, -8
  32              		.cfi_offset 14, -4
  33 0002 041C     		mov	r4, r0
  17:.\main.c      ****     // start next cycle
  18:.\main.c      ****     Pin_1_Write(1u);   
  34              		.loc 1 18 0
  35 0004 0120     		mov	r0, #1
  36              	.LVL1:
  37 0006 FFF7FEFF 		bl	Pin_1_Write
  38              	.LVL2:
  19:.\main.c      ****     CyDelayUs(DELAY); // the pulse on the wire does not really have a width of 1us, since the write
ARM GAS  C:\Users\ADMINI~1\AppData\Local\Temp\ccA625JY.s 			page 2


  39              		.loc 1 19 0
  40 000a 0120     		mov	r0, #1
  41 000c FFF7FEFF 		bl	CyDelayUs
  42              	.LVL3:
  20:.\main.c      ****     Pin_1_Write(0u);
  43              		.loc 1 20 0
  44 0010 0020     		mov	r0, #0
  45 0012 FFF7FEFF 		bl	Pin_1_Write
  46              	.LVL4:
  21:.\main.c      ****     CyDelayUs(DELAY);
  47              		.loc 1 21 0
  48 0016 0120     		mov	r0, #1
  49 0018 FFF7FEFF 		bl	CyDelayUs
  50              	.LVL5:
  22:.\main.c      ****     
  23:.\main.c      ****     if(bit)
  51              		.loc 1 23 0
  52 001c 002C     		cmp	r4, #0
  53 001e 0CD0     		beq	.L2
  24:.\main.c      ****     {   // write "1" data bit
  25:.\main.c      ****         Pin_1_Write(1u);
  54              		.loc 1 25 0
  55 0020 0120     		mov	r0, #1
  56 0022 FFF7FEFF 		bl	Pin_1_Write
  57              	.LVL6:
  26:.\main.c      ****         CyDelayUs(DELAY); // Bit 29 is a 1
  58              		.loc 1 26 0
  59 0026 0120     		mov	r0, #1
  60 0028 FFF7FEFF 		bl	CyDelayUs
  61              	.LVL7:
  27:.\main.c      ****         Pin_1_Write(0u);
  62              		.loc 1 27 0
  63 002c 0020     		mov	r0, #0
  64 002e FFF7FEFF 		bl	Pin_1_Write
  65              	.LVL8:
  28:.\main.c      ****         CyDelayUs(T_CYCLE_1);
  66              		.loc 1 28 0
  67 0032 0120     		mov	r0, #1
  68 0034 FFF7FEFF 		bl	CyDelayUs
  69              	.LVL9:
  70 0038 02E0     		b	.L1
  71              	.L2:
  29:.\main.c      ****     }
  30:.\main.c      ****     else
  31:.\main.c      ****     {   // for "0" data bit simply let timeout the cylce
  32:.\main.c      ****         CyDelayUs(T_CYCLE_0);
  72              		.loc 1 32 0
  73 003a 0420     		mov	r0, #4
  74 003c FFF7FEFF 		bl	CyDelayUs
  75              	.LVL10:
  76              	.L1:
  33:.\main.c      ****     }
  34:.\main.c      **** }
  77              		.loc 1 34 0
  78              		@ sp needed
  79 0040 10BD     		pop	{r4, pc}
  80              		.cfi_endproc
ARM GAS  C:\Users\ADMINI~1\AppData\Local\Temp\ccA625JY.s 			page 3


  81              	.LFE37:
  82              		.size	sendBit, .-sendBit
  83 0042 C046     		.section	.text.sendByte,"ax",%progbits
  84              		.align	2
  85              		.global	sendByte
  86              		.code	16
  87              		.thumb_func
  88              		.type	sendByte, %function
  89              	sendByte:
  90              	.LFB38:
  35:.\main.c      **** 
  36:.\main.c      **** void sendByte(uint8_t byte)
  37:.\main.c      **** {
  91              		.loc 1 37 0
  92              		.cfi_startproc
  93              	.LVL11:
  94 0000 10B5     		push	{r4, lr}
  95              		.cfi_def_cfa_offset 8
  96              		.cfi_offset 4, -8
  97              		.cfi_offset 14, -4
  98 0002 041C     		mov	r4, r0
  38:.\main.c      ****     sendBit(byte & (1<<7));
  99              		.loc 1 38 0
 100 0004 7F23     		mov	r3, #127
 101 0006 9843     		bic	r0, r3
 102              	.LVL12:
 103 0008 FFF7FEFF 		bl	sendBit
 104              	.LVL13:
  39:.\main.c      ****     sendBit(byte & (1<<6));
 105              		.loc 1 39 0
 106 000c 4020     		mov	r0, #64
 107 000e 2040     		and	r0, r4
 108 0010 FFF7FEFF 		bl	sendBit
 109              	.LVL14:
  40:.\main.c      ****     sendBit(byte & (1<<5));
 110              		.loc 1 40 0
 111 0014 2020     		mov	r0, #32
 112 0016 2040     		and	r0, r4
 113 0018 FFF7FEFF 		bl	sendBit
 114              	.LVL15:
  41:.\main.c      ****     sendBit(byte & (1<<4));
 115              		.loc 1 41 0
 116 001c 1020     		mov	r0, #16
 117 001e 2040     		and	r0, r4
 118 0020 FFF7FEFF 		bl	sendBit
 119              	.LVL16:
  42:.\main.c      ****     sendBit(byte & (1<<3));
 120              		.loc 1 42 0
 121 0024 0820     		mov	r0, #8
 122 0026 2040     		and	r0, r4
 123 0028 FFF7FEFF 		bl	sendBit
 124              	.LVL17:
  43:.\main.c      ****     sendBit(byte & (1<<2));
 125              		.loc 1 43 0
 126 002c 0420     		mov	r0, #4
 127 002e 2040     		and	r0, r4
 128 0030 FFF7FEFF 		bl	sendBit
ARM GAS  C:\Users\ADMINI~1\AppData\Local\Temp\ccA625JY.s 			page 4


 129              	.LVL18:
  44:.\main.c      ****     sendBit(byte & (1<<1));
 130              		.loc 1 44 0
 131 0034 0220     		mov	r0, #2
 132 0036 2040     		and	r0, r4
 133 0038 FFF7FEFF 		bl	sendBit
 134              	.LVL19:
  45:.\main.c      ****     sendBit(byte & (1<<0));
 135              		.loc 1 45 0
 136 003c 0120     		mov	r0, #1
 137 003e 2040     		and	r0, r4
 138 0040 FFF7FEFF 		bl	sendBit
 139              	.LVL20:
  46:.\main.c      **** }
 140              		.loc 1 46 0
 141              		@ sp needed
 142 0044 10BD     		pop	{r4, pc}
 143              		.cfi_endproc
 144              	.LFE38:
 145              		.size	sendByte, .-sendByte
 146 0046 C046     		.section	.text.main,"ax",%progbits
 147              		.align	2
 148              		.global	main
 149              		.code	16
 150              		.thumb_func
 151              		.type	main, %function
 152              	main:
 153              	.LFB39:
  47:.\main.c      **** 
  48:.\main.c      **** int main()
  49:.\main.c      **** {
 154              		.loc 1 49 0
 155              		.cfi_startproc
 156 0000 10B5     		push	{r4, lr}
 157              		.cfi_def_cfa_offset 8
 158              		.cfi_offset 4, -8
 159              		.cfi_offset 14, -4
 160 0002 82B0     		sub	sp, sp, #8
 161              		.cfi_def_cfa_offset 16
 162              	.LVL21:
  50:.\main.c      ****     uint8_t on  = 1;  // 0 = all off, 1 = all on
  51:.\main.c      ****     
  52:.\main.c      **** //                         0x3A (GS write) , 3x 8bit LED value
  53:.\main.c      **** //  uint8_t all_on[32]  = {0,0,1,1,1,0,1,0 , 1,0,0,0,0,0,0,1 , 1,0,0,0,0,0,0,1 , 1,0,0,0,0,0,0,1 };
  54:.\main.c      ****     uint8_t all_on[4]   = {0x3A, 0x81, 0x81, 0x81}; 
 163              		.loc 1 54 0
 164 0004 01A8     		add	r0, sp, #4
 165 0006 0F49     		ldr	r1, .L9
 166 0008 0422     		mov	r2, #4
 167 000a FFF7FEFF 		bl	memcpy
 168              	.LVL22:
  55:.\main.c      ****     
  56:.\main.c      **** //                         0x3A (GS write) , 3x 8bit LED value
  57:.\main.c      **** //  uint8_t all_off[32] = {0,0,1,1,1,0,1,0 , 0,0,0,0,0,0,0,0 , 0,0,0,0,0,0,0,0 , 0,0,0,0,0,0,0,0 };
  58:.\main.c      ****     uint8_t all_off[4]  = {0x3A, 0x00, 0x00, 0x00};
  59:.\main.c      ****     
  60:.\main.c      ****     CyGlobalIntEnable; /* Enable global interrupts. */
ARM GAS  C:\Users\ADMINI~1\AppData\Local\Temp\ccA625JY.s 			page 5


 169              		.loc 1 60 0
 170              	@ 60 ".\main.c" 1
 171 000e 62B6     		CPSIE   i
 172              	@ 0 "" 2
 173              	.LVL23:
  61:.\main.c      **** 
  62:.\main.c      ****     uint8_t idx = 0;  
  63:.\main.c      ****     uint8_t val = 0;
  64:.\main.c      ****     
  65:.\main.c      ****     // establish the cycle time, 
  66:.\main.c      ****     // by writing the 1st SID Rising Edge (see datasheet)
  67:.\main.c      ****     Pin_1_Write(1u);   
 174              		.loc 1 67 0
 175              		.code	16
 176 0010 0120     		mov	r0, #1
 177 0012 FFF7FEFF 		bl	Pin_1_Write
 178              	.LVL24:
  68:.\main.c      ****     CyDelayUs(DELAY);
 179              		.loc 1 68 0
 180 0016 0120     		mov	r0, #1
 181 0018 FFF7FEFF 		bl	CyDelayUs
 182              	.LVL25:
  69:.\main.c      ****     Pin_1_Write(0u);
 183              		.loc 1 69 0
 184 001c 0020     		mov	r0, #0
 185 001e FFF7FEFF 		bl	Pin_1_Write
 186              	.LVL26:
  70:.\main.c      ****     CyDelayUs(DELAY);
 187              		.loc 1 70 0
 188 0022 0120     		mov	r0, #1
 189 0024 FFF7FEFF 		bl	CyDelayUs
 190              	.LVL27:
  71:.\main.c      ****     CyDelayUs(T_CYCLE_0);
 191              		.loc 1 71 0
 192 0028 0420     		mov	r0, #4
 193 002a FFF7FEFF 		bl	CyDelayUs
 194              	.LVL28:
  72:.\main.c      ****     
  73:.\main.c      ****     // write the field values
  74:.\main.c      ****     for (idx = 0; idx < 4; idx++)
 195              		.loc 1 74 0
 196 002e 0024     		mov	r4, #0
 197 0030 05E0     		b	.L6
 198              	.LVL29:
 199              	.L7:
  75:.\main.c      ****     {
  76:.\main.c      ****         val = on ? all_on[idx] : all_off[idx];
 200              		.loc 1 76 0 discriminator 1
 201 0032 01AB     		add	r3, sp, #4
 202 0034 185D     		ldrb	r0, [r3, r4]
 203              	.LVL30:
  77:.\main.c      ****         sendByte(val);
 204              		.loc 1 77 0 discriminator 1
 205 0036 FFF7FEFF 		bl	sendByte
 206              	.LVL31:
  74:.\main.c      ****     {
 207              		.loc 1 74 0 discriminator 1
ARM GAS  C:\Users\ADMINI~1\AppData\Local\Temp\ccA625JY.s 			page 6


 208 003a 0134     		add	r4, r4, #1
 209              	.LVL32:
 210 003c E4B2     		uxtb	r4, r4
 211              	.LVL33:
 212              	.L6:
  74:.\main.c      ****     {
 213              		.loc 1 74 0 is_stmt 0 discriminator 2
 214 003e 032C     		cmp	r4, #3
 215 0040 F7D9     		bls	.L7
 216              	.L8:
  78:.\main.c      ****     }
  79:.\main.c      **** 
  80:.\main.c      ****     
  81:.\main.c      ****     for(;;)
  82:.\main.c      ****     {
  83:.\main.c      ****         /* Place your application code here. */
  84:.\main.c      ****     }
 217              		.loc 1 84 0 is_stmt 1 discriminator 1
 218 0042 FEE7     		b	.L8
 219              	.L10:
 220              		.align	2
 221              	.L9:
 222 0044 00000000 		.word	.LANCHOR0
 223              		.cfi_endproc
 224              	.LFE39:
 225              		.size	main, .-main
 226              		.section	.rodata
 227              		.align	2
 228              		.set	.LANCHOR0,. + 0
 229              	.LC0:
 230 0000 3A       		.byte	58
 231 0001 81       		.byte	-127
 232 0002 81       		.byte	-127
 233 0003 81       		.byte	-127
 234              		.text
 235              	.Letext0:
 236              		.file 2 "c:\\program files (x86)\\cypress\\psoc creator\\3.3\\psoc creator\\import\\gnu\\arm\\4.9.
 237              		.file 3 "c:\\program files (x86)\\cypress\\psoc creator\\3.3\\psoc creator\\import\\gnu\\arm\\4.9.
 238              		.file 4 "Generated_Source\\PSoC4/cytypes.h"
 239              		.file 5 "Generated_Source\\PSoC4/Pin_1.h"
 240              		.file 6 "Generated_Source\\PSoC4/CyLib.h"